target datalayout = "e-m:e-p270:32:32-p271:32:32-p272:64:64-i64:64-i128:128-f80:128-n8:16:32:64-S128"
target triple = "x86_64-pc-linux-gnu"

%"union.llvm::MCSymbol::NameEntryStorageTy" = type { ptr }
%"class.llvm::MCContext" = type { i32, %"class.llvm::StringRef", %"class.llvm::Triple", ptr, %"class.std::unique_ptr", %"class.std::vector", %"class.std::function", ptr, ptr, ptr, ptr, %"class.std::unique_ptr.5", %"class.llvm::BumpPtrAllocatorImpl", %"class.llvm::BumpPtrAllocatorImpl", %"class.llvm::SpecificBumpPtrAllocator", %"class.llvm::SpecificBumpPtrAllocator.19", %"class.llvm::SpecificBumpPtrAllocator.20", %"class.llvm::SpecificBumpPtrAllocator.21", %"class.llvm::SpecificBumpPtrAllocator.22", %"class.llvm::SpecificBumpPtrAllocator.23", %"class.llvm::SpecificBumpPtrAllocator.24", %"class.llvm::SpecificBumpPtrAllocator.25", %"class.llvm::SpecificBumpPtrAllocator.26", %"class.llvm::SpecificBumpPtrAllocator.27", %"class.llvm::StringMap", %"class.llvm::DenseMap", %"class.llvm::StringMap.29", %"class.llvm::DenseMap.30", i8, %"class.std::__cxx11::basic_string", %"class.std::unique_ptr.33", i8, %"class.llvm::SmallString", %"class.llvm::SmallVector.47", %"class.std::__cxx11::basic_string", %"class.std::map", %"class.llvm::MCDwarfLoc", i8, i8, i32, %"class.llvm::SetVector", %"class.std::vector.63", %"class.llvm::StringRef", %"class.llvm::StringRef", i16, i8, i8, i8, i32, %"class.llvm::MCPseudoProbeTable", %"class.llvm::StringMap.73", %"class.std::map.74", %"class.llvm::StringMap.80", %"class.std::map.81", %"class.std::map.87", %"class.std::map.93", %"class.llvm::StringMap.99", %"class.llvm::StringMap.100", %"class.llvm::SpecificBumpPtrAllocator.101", i8, ptr, i8, %"class.llvm::StringMap.102", %"class.llvm::DenseMap.103", %"class.llvm::DenseSet.106" }
%"class.llvm::Triple" = type { %"class.std::__cxx11::basic_string", i32, i32, i32, i32, i32, i32 }
%"class.std::unique_ptr" = type { %"struct.std::__uniq_ptr_data" }
%"struct.std::__uniq_ptr_data" = type { %"class.std::__uniq_ptr_impl" }
%"class.std::__uniq_ptr_impl" = type { %"class.std::tuple" }
%"class.std::tuple" = type { %"struct.std::_Tuple_impl" }
%"struct.std::_Tuple_impl" = type { %"struct.std::_Head_base.1" }
%"struct.std::_Head_base.1" = type { ptr }
%"class.std::vector" = type { %"struct.std::_Vector_base" }
%"struct.std::_Vector_base" = type { %"struct.std::_Vector_base<const llvm::MDNode *, std::allocator<const llvm::MDNode *>>::_Vector_impl" }
%"struct.std::_Vector_base<const llvm::MDNode *, std::allocator<const llvm::MDNode *>>::_Vector_impl" = type { %"struct.std::_Vector_base<const llvm::MDNode *, std::allocator<const llvm::MDNode *>>::_Vector_impl_data" }
%"struct.std::_Vector_base<const llvm::MDNode *, std::allocator<const llvm::MDNode *>>::_Vector_impl_data" = type { ptr, ptr, ptr }
%"class.std::function" = type { %"class.std::_Function_base", ptr }
%"class.std::_Function_base" = type { %"union.std::_Any_data", ptr }
%"union.std::_Any_data" = type { %"union.std::_Nocopy_types" }
%"union.std::_Nocopy_types" = type { { i64, i64 } }
%"class.std::unique_ptr.5" = type { %"struct.std::__uniq_ptr_data.6" }
%"struct.std::__uniq_ptr_data.6" = type { %"class.std::__uniq_ptr_impl.7" }
%"class.std::__uniq_ptr_impl.7" = type { %"class.std::tuple.8" }
%"class.std::tuple.8" = type { %"struct.std::_Tuple_impl.9" }
%"struct.std::_Tuple_impl.9" = type { %"struct.std::_Head_base.12" }
%"struct.std::_Head_base.12" = type { ptr }
%"class.llvm::BumpPtrAllocatorImpl" = type { ptr, ptr, %"class.llvm::SmallVector", %"class.llvm::SmallVector.14", i64, i64 }
%"class.llvm::SmallVector" = type { %"class.llvm::SmallVectorImpl", %"struct.llvm::SmallVectorStorage" }
%"class.llvm::SmallVectorImpl" = type { %"class.llvm::SmallVectorTemplateBase" }
%"class.llvm::SmallVectorTemplateBase" = type { %"class.llvm::SmallVectorTemplateCommon" }
%"class.llvm::SmallVectorTemplateCommon" = type { %"class.llvm::SmallVectorBase" }
%"class.llvm::SmallVectorBase" = type { ptr, i32, i32 }
%"struct.llvm::SmallVectorStorage" = type { [32 x i8] }
%"class.llvm::SmallVector.14" = type { %"class.llvm::SmallVectorImpl.15" }
%"class.llvm::SmallVectorImpl.15" = type { %"class.llvm::SmallVectorTemplateBase.16" }
%"class.llvm::SmallVectorTemplateBase.16" = type { %"class.llvm::SmallVectorTemplateCommon.17" }
%"class.llvm::SmallVectorTemplateCommon.17" = type { %"class.llvm::SmallVectorBase" }
%"class.llvm::SpecificBumpPtrAllocator" = type { %"class.llvm::BumpPtrAllocatorImpl" }
%"class.llvm::SpecificBumpPtrAllocator.19" = type { %"class.llvm::BumpPtrAllocatorImpl" }
%"class.llvm::SpecificBumpPtrAllocator.20" = type { %"class.llvm::BumpPtrAllocatorImpl" }
%"class.llvm::SpecificBumpPtrAllocator.21" = type { %"class.llvm::BumpPtrAllocatorImpl" }
%"class.llvm::SpecificBumpPtrAllocator.22" = type { %"class.llvm::BumpPtrAllocatorImpl" }
%"class.llvm::SpecificBumpPtrAllocator.23" = type { %"class.llvm::BumpPtrAllocatorImpl" }
%"class.llvm::SpecificBumpPtrAllocator.24" = type { %"class.llvm::BumpPtrAllocatorImpl" }
%"class.llvm::SpecificBumpPtrAllocator.25" = type { %"class.llvm::BumpPtrAllocatorImpl" }
%"class.llvm::SpecificBumpPtrAllocator.26" = type { %"class.llvm::BumpPtrAllocatorImpl" }
%"class.llvm::SpecificBumpPtrAllocator.27" = type { %"class.llvm::BumpPtrAllocatorImpl" }
%"class.llvm::StringMap" = type { %"class.llvm::StringMapImpl", %"class.llvm::detail::AllocatorHolder.28" }
%"class.llvm::StringMapImpl" = type { ptr, i32, i32, i32, i32 }
%"class.llvm::detail::AllocatorHolder.28" = type { ptr }
%"class.llvm::DenseMap" = type <{ ptr, i32, i32, i32, [4 x i8] }>
%"class.llvm::StringMap.29" = type { %"class.llvm::StringMapImpl", %"class.llvm::detail::AllocatorHolder.28" }
%"class.llvm::DenseMap.30" = type <{ ptr, i32, i32, i32, [4 x i8] }>
%"class.std::unique_ptr.33" = type { %"struct.std::__uniq_ptr_data.34" }
%"struct.std::__uniq_ptr_data.34" = type { %"class.std::__uniq_ptr_impl.35" }
%"class.std::__uniq_ptr_impl.35" = type { %"class.std::tuple.36" }
%"class.std::tuple.36" = type { %"struct.std::_Tuple_impl.37" }
%"struct.std::_Tuple_impl.37" = type { %"struct.std::_Head_base.40" }
%"struct.std::_Head_base.40" = type { ptr }
%"class.llvm::SmallString" = type { %"class.llvm::SmallVector.41" }
%"class.llvm::SmallVector.41" = type { %"class.llvm::SmallVectorImpl.42", %"struct.llvm::SmallVectorStorage.46" }
%"class.llvm::SmallVectorImpl.42" = type { %"class.llvm::SmallVectorTemplateBase.43" }
%"class.llvm::SmallVectorTemplateBase.43" = type { %"class.llvm::SmallVectorTemplateCommon.44" }
%"class.llvm::SmallVectorTemplateCommon.44" = type { %"class.llvm::SmallVectorBase.45" }
%"class.llvm::SmallVectorBase.45" = type { ptr, i64, i64 }
%"struct.llvm::SmallVectorStorage.46" = type { [128 x i8] }
%"class.llvm::SmallVector.47" = type { %"class.llvm::SmallVectorImpl.48" }
%"class.llvm::SmallVectorImpl.48" = type { %"class.llvm::SmallVectorTemplateBase.49" }
%"class.llvm::SmallVectorTemplateBase.49" = type { %"class.llvm::SmallVectorTemplateCommon.50" }
%"class.llvm::SmallVectorTemplateCommon.50" = type { %"class.llvm::SmallVectorBase" }
%"class.std::__cxx11::basic_string" = type { %"struct.std::__cxx11::basic_string<char>::_Alloc_hider", i64, %union.anon }
%"struct.std::__cxx11::basic_string<char>::_Alloc_hider" = type { ptr }
%union.anon = type { i64, [8 x i8] }
%"class.std::map" = type { %"class.std::_Rb_tree" }
%"class.std::_Rb_tree" = type { %"struct.std::_Rb_tree<unsigned int, std::pair<const unsigned int, llvm::MCDwarfLineTable>, std::_Select1st<std::pair<const unsigned int, llvm::MCDwarfLineTable>>, std::less<unsigned int>>::_Rb_tree_impl" }
%"struct.std::_Rb_tree<unsigned int, std::pair<const unsigned int, llvm::MCDwarfLineTable>, std::_Select1st<std::pair<const unsigned int, llvm::MCDwarfLineTable>>, std::less<unsigned int>>::_Rb_tree_impl" = type { [8 x i8], %"struct.std::_Rb_tree_header" }
%"struct.std::_Rb_tree_header" = type { %"struct.std::_Rb_tree_node_base", i64 }
%"struct.std::_Rb_tree_node_base" = type { i32, ptr, ptr, ptr }
%"class.llvm::MCDwarfLoc" = type { i32, i32, i16, i8, i8, i32 }
%"class.llvm::SetVector" = type { %"class.llvm::DenseSet", %"class.llvm::SmallVector.58" }
%"class.llvm::DenseSet" = type { %"class.llvm::detail::DenseSetImpl" }
%"class.llvm::detail::DenseSetImpl" = type { %"class.llvm::DenseMap.55" }
%"class.llvm::DenseMap.55" = type <{ ptr, i32, i32, i32, [4 x i8] }>
%"class.llvm::SmallVector.58" = type { %"class.llvm::SmallVectorImpl.59" }
%"class.llvm::SmallVectorImpl.59" = type { %"class.llvm::SmallVectorTemplateBase.60" }
%"class.llvm::SmallVectorTemplateBase.60" = type { %"class.llvm::SmallVectorTemplateCommon.61" }
%"class.llvm::SmallVectorTemplateCommon.61" = type { %"class.llvm::SmallVectorBase" }
%"class.std::vector.63" = type { %"struct.std::_Vector_base.64" }
%"struct.std::_Vector_base.64" = type { %"struct.std::_Vector_base<llvm::MCGenDwarfLabelEntry, std::allocator<llvm::MCGenDwarfLabelEntry>>::_Vector_impl" }
%"struct.std::_Vector_base<llvm::MCGenDwarfLabelEntry, std::allocator<llvm::MCGenDwarfLabelEntry>>::_Vector_impl" = type { %"struct.std::_Vector_base<llvm::MCGenDwarfLabelEntry, std::allocator<llvm::MCGenDwarfLabelEntry>>::_Vector_impl_data" }
%"struct.std::_Vector_base<llvm::MCGenDwarfLabelEntry, std::allocator<llvm::MCGenDwarfLabelEntry>>::_Vector_impl_data" = type { ptr, ptr, ptr }
%"class.llvm::StringRef" = type { ptr, i64 }
%"class.llvm::MCPseudoProbeTable" = type { %"class.llvm::MCPseudoProbeSections" }
%"class.llvm::MCPseudoProbeSections" = type { %"class.std::unordered_map" }
%"class.std::unordered_map" = type { %"class.std::_Hashtable" }
%"class.std::_Hashtable" = type { ptr, i64, %"struct.std::__detail::_Hash_node_base", i64, %"struct.std::__detail::_Prime_rehash_policy", ptr }
%"struct.std::__detail::_Hash_node_base" = type { ptr }
%"struct.std::__detail::_Prime_rehash_policy" = type { float, i64 }
%"class.llvm::StringMap.73" = type { %"class.llvm::StringMapImpl" }
%"class.std::map.74" = type { %"class.std::_Rb_tree.75" }
%"class.std::_Rb_tree.75" = type { %"struct.std::_Rb_tree<llvm::MCContext::COFFSectionKey, std::pair<const llvm::MCContext::COFFSectionKey, llvm::MCSectionCOFF *>, std::_Select1st<std::pair<const llvm::MCContext::COFFSectionKey, llvm::MCSectionCOFF *>>, std::less<llvm::MCContext::COFFSectionKey>>::_Rb_tree_impl" }
%"struct.std::_Rb_tree<llvm::MCContext::COFFSectionKey, std::pair<const llvm::MCContext::COFFSectionKey, llvm::MCSectionCOFF *>, std::_Select1st<std::pair<const llvm::MCContext::COFFSectionKey, llvm::MCSectionCOFF *>>, std::less<llvm::MCContext::COFFSectionKey>>::_Rb_tree_impl" = type { [8 x i8], %"struct.std::_Rb_tree_header" }
%"class.llvm::StringMap.80" = type { %"class.llvm::StringMapImpl" }
%"class.std::map.81" = type { %"class.std::_Rb_tree.82" }
%"class.std::_Rb_tree.82" = type { %"struct.std::_Rb_tree<std::__cxx11::basic_string<char>, std::pair<const std::__cxx11::basic_string<char>, llvm::MCSectionGOFF *>, std::_Select1st<std::pair<const std::__cxx11::basic_string<char>, llvm::MCSectionGOFF *>>, std::less<std::__cxx11::basic_string<char>>>::_Rb_tree_impl" }
%"struct.std::_Rb_tree<std::__cxx11::basic_string<char>, std::pair<const std::__cxx11::basic_string<char>, llvm::MCSectionGOFF *>, std::_Select1st<std::pair<const std::__cxx11::basic_string<char>, llvm::MCSectionGOFF *>>, std::less<std::__cxx11::basic_string<char>>>::_Rb_tree_impl" = type { [8 x i8], %"struct.std::_Rb_tree_header" }
%"class.std::map.87" = type { %"class.std::_Rb_tree.88" }
%"class.std::_Rb_tree.88" = type { %"struct.std::_Rb_tree<llvm::MCContext::WasmSectionKey, std::pair<const llvm::MCContext::WasmSectionKey, llvm::MCSectionWasm *>, std::_Select1st<std::pair<const llvm::MCContext::WasmSectionKey, llvm::MCSectionWasm *>>, std::less<llvm::MCContext::WasmSectionKey>>::_Rb_tree_impl" }
%"struct.std::_Rb_tree<llvm::MCContext::WasmSectionKey, std::pair<const llvm::MCContext::WasmSectionKey, llvm::MCSectionWasm *>, std::_Select1st<std::pair<const llvm::MCContext::WasmSectionKey, llvm::MCSectionWasm *>>, std::less<llvm::MCContext::WasmSectionKey>>::_Rb_tree_impl" = type { [8 x i8], %"struct.std::_Rb_tree_header" }
%"class.std::map.93" = type { %"class.std::_Rb_tree.94" }
%"class.std::_Rb_tree.94" = type { %"struct.std::_Rb_tree<llvm::MCContext::XCOFFSectionKey, std::pair<const llvm::MCContext::XCOFFSectionKey, llvm::MCSectionXCOFF *>, std::_Select1st<std::pair<const llvm::MCContext::XCOFFSectionKey, llvm::MCSectionXCOFF *>>, std::less<llvm::MCContext::XCOFFSectionKey>>::_Rb_tree_impl" }
%"struct.std::_Rb_tree<llvm::MCContext::XCOFFSectionKey, std::pair<const llvm::MCContext::XCOFFSectionKey, llvm::MCSectionXCOFF *>, std::_Select1st<std::pair<const llvm::MCContext::XCOFFSectionKey, llvm::MCSectionXCOFF *>>, std::less<llvm::MCContext::XCOFFSectionKey>>::_Rb_tree_impl" = type { [8 x i8], %"struct.std::_Rb_tree_header" }
%"class.llvm::StringMap.99" = type { %"class.llvm::StringMapImpl" }
%"class.llvm::StringMap.100" = type { %"class.llvm::StringMapImpl" }
%"class.llvm::SpecificBumpPtrAllocator.101" = type { %"class.llvm::BumpPtrAllocatorImpl" }
%"class.llvm::StringMap.102" = type { %"class.llvm::StringMapImpl" }
%"class.llvm::DenseMap.103" = type <{ ptr, i32, i32, i32, [4 x i8] }>
%"class.llvm::DenseSet.106" = type { %"class.llvm::detail::DenseSetImpl.107" }
%"class.llvm::detail::DenseSetImpl.107" = type { %"class.llvm::DenseMap.108" }
%"class.llvm::DenseMap.108" = type <{ ptr, i32, i32, i32, [4 x i8] }>
%"struct.llvm::Align" = type { i8 }

; Function Attrs: mustprogress nounwind uwtable
define linkonce_odr hidden noundef i64 @_ZNK4llvm5Align5valueEv(ptr noundef nonnull align 1 dereferenceable(1) %0) #1 comdat align 2 {
  %2 = alloca ptr, align 8
  store ptr %0, ptr %2, align 8
  %3 = load ptr, ptr %2, align 8
  %4 = getelementptr inbounds nuw %"struct.llvm::Align", ptr %3, i32 0, i32 0
  %5 = load i8, ptr %4, align 1
  %6 = zext i8 %5 to i32
  %7 = zext i32 %6 to i64
  %8 = shl i64 1, %7
  ret i64 %8
}

; Function Attrs: mustprogress nounwind uwtable
define linkonce_odr hidden noundef i32 @_ZN4llvm6detail19LeadingZerosCounterImLm8EE5countEm(i64 noundef %0) #1 comdat align 2 {
  %2 = alloca i32, align 4
  %3 = alloca i64, align 8
  store i64 %0, ptr %3, align 8
  %4 = load i64, ptr %3, align 8
  %5 = icmp eq i64 %4, 0
  br i1 %5, label %6, label %7

6:                                                ; preds = %1
  store i32 64, ptr %2, align 4
  br label %11

7:                                                ; preds = %1
  %8 = load i64, ptr %3, align 8
  %9 = call i64 @llvm.ctlz.i64(i64 %8, i1 true)
  %10 = trunc i64 %9 to i32
  store i32 %10, ptr %2, align 4
  br label %11

11:                                               ; preds = %7, %6
  %12 = load i32, ptr %2, align 4
  ret i32 %12
}

; Function Attrs: mustprogress nounwind uwtable
define linkonce_odr hidden noundef i64 @_ZN4llvm7alignToEmNS_5AlignE(i64 noundef %0, i8 %1) #1 comdat {
  %3 = alloca %"struct.llvm::Align", align 1
  %4 = alloca i64, align 8
  %5 = alloca i64, align 8
  %6 = getelementptr inbounds nuw %"struct.llvm::Align", ptr %3, i32 0, i32 0
  store i8 %1, ptr %6, align 1
  store i64 %0, ptr %4, align 8
  %7 = call noundef i64 @_ZNK4llvm5Align5valueEv(ptr noundef nonnull align 1 dereferenceable(1) %3)
  store i64 %7, ptr %5, align 8
  %8 = load i64, ptr %4, align 8
  %9 = load i64, ptr %5, align 8
  %10 = add i64 %8, %9
  %11 = sub i64 %10, 1
  %12 = load i64, ptr %5, align 8
  %13 = sub i64 %12, 1
  %14 = xor i64 %13, -1
  %15 = and i64 %11, %14
  ret i64 %15
}

; Function Attrs: mustprogress nounwind uwtable
define linkonce_odr noundef i32 @_ZN4llvm11countl_zeroImEEiT_(i64 noundef %0) #1 comdat {
  %2 = alloca i64, align 8
  store i64 %0, ptr %2, align 8
  %3 = load i64, ptr %2, align 8
  %4 = call noundef i32 @_ZN4llvm6detail19LeadingZerosCounterImLm8EE5countEm(i64 noundef %3)
  ret i32 %4
}

; Function Attrs: mustprogress nounwind uwtable
define linkonce_odr hidden noundef i64 @_ZN4llvm9alignAddrEPKvNS_5AlignE(ptr noundef %0, i8 %1) #1 comdat {
  %3 = alloca %"struct.llvm::Align", align 1
  %4 = alloca ptr, align 8
  %5 = alloca i64, align 8
  %6 = alloca %"struct.llvm::Align", align 1
  %7 = getelementptr inbounds nuw %"struct.llvm::Align", ptr %3, i32 0, i32 0
  store i8 %1, ptr %7, align 1
  store ptr %0, ptr %4, align 8
  %8 = load ptr, ptr %4, align 8
  %9 = ptrtoint ptr %8 to i64
  store i64 %9, ptr %5, align 8
  %10 = load i64, ptr %5, align 8
  call void @llvm.memcpy.p0.p0.i64(ptr align 1 %6, ptr align 1 %3, i64 1, i1 false)
  %11 = getelementptr inbounds nuw %"struct.llvm::Align", ptr %6, i32 0, i32 0
  %12 = load i8, ptr %11, align 1
  %13 = call noundef i64 @_ZN4llvm7alignToEmNS_5AlignE(i64 noundef %10, i8 %12)
  ret i64 %13
}

; Function Attrs: mustprogress nounwind uwtable
define linkonce_odr hidden noundef i32 @_ZN4llvm7Log2_64Em(i64 noundef %0) #1 comdat {
  %2 = alloca i64, align 8
  store i64 %0, ptr %2, align 8
  %3 = load i64, ptr %2, align 8
  %4 = call noundef i32 @_ZN4llvm11countl_zeroImEEiT_(i64 noundef %3)
  %5 = sub nsw i32 63, %4
  ret i32 %5
}

; Function Attrs: mustprogress nounwind uwtable
define linkonce_odr hidden noundef nonnull ptr @_ZN4llvm20BumpPtrAllocatorImplINS_15MallocAllocatorELm4096ELm4096ELm128EE8AllocateEmNS_5AlignE(ptr noundef nonnull align 8 dereferenceable(96) %0, i64 noundef %1, i8 %2) #1 comdat align 2 {
  %4 = alloca ptr, align 8
  %5 = alloca %"struct.llvm::Align", align 1
  %6 = alloca ptr, align 8
  %7 = alloca i64, align 8
  %8 = alloca i64, align 8
  %9 = alloca %"struct.llvm::Align", align 1
  %10 = alloca i64, align 8
  %11 = alloca i64, align 8
  %12 = alloca %"struct.llvm::Align", align 1
  %13 = getelementptr inbounds nuw %"struct.llvm::Align", ptr %5, i32 0, i32 0
  store i8 %2, ptr %13, align 1
  store ptr %0, ptr %6, align 8
  store i64 %1, ptr %7, align 8
  %14 = load ptr, ptr %6, align 8
  %15 = load i64, ptr %7, align 8
  %16 = getelementptr inbounds nuw %"class.llvm::BumpPtrAllocatorImpl", ptr %14, i32 0, i32 4
  %17 = load i64, ptr %16, align 8
  %18 = add i64 %17, %15
  store i64 %18, ptr %16, align 8
  %19 = getelementptr inbounds nuw %"class.llvm::BumpPtrAllocatorImpl", ptr %14, i32 0, i32 0
  %20 = load ptr, ptr %19, align 8
  call void @llvm.memcpy.p0.p0.i64(ptr align 1 %9, ptr align 1 %5, i64 1, i1 false)
  %21 = getelementptr inbounds nuw %"struct.llvm::Align", ptr %9, i32 0, i32 0
  %22 = load i8, ptr %21, align 1
  %23 = call noundef i64 @_ZN4llvm9alignAddrEPKvNS_5AlignE(ptr noundef %20, i8 %22)
  store i64 %23, ptr %8, align 8
  %24 = load i64, ptr %7, align 8
  store i64 %24, ptr %10, align 8
  %25 = load i64, ptr %8, align 8
  %26 = load i64, ptr %10, align 8
  %27 = add i64 %25, %26
  store i64 %27, ptr %11, align 8
  %28 = load i64, ptr %11, align 8
  %29 = getelementptr inbounds nuw %"class.llvm::BumpPtrAllocatorImpl", ptr %14, i32 0, i32 1
  %30 = load ptr, ptr %29, align 8
  %31 = ptrtoint ptr %30 to i64
  %32 = icmp ule i64 %28, %31
  br i1 %32, label %33, label %37

33:                                               ; preds = %3
  %34 = getelementptr inbounds nuw %"class.llvm::BumpPtrAllocatorImpl", ptr %14, i32 0, i32 0
  %35 = load ptr, ptr %34, align 8
  %36 = icmp ne ptr %35, null
  br label %37

37:                                               ; preds = %33, %3
  %38 = phi i1 [ false, %3 ], [ %36, %33 ]
  br i1 %38, label %39, label %45

39:                                               ; preds = %37
  %40 = load i64, ptr %11, align 8
  %41 = inttoptr i64 %40 to ptr
  %42 = getelementptr inbounds nuw %"class.llvm::BumpPtrAllocatorImpl", ptr %14, i32 0, i32 0
  store ptr %41, ptr %42, align 8
  %43 = load i64, ptr %8, align 8
  %44 = inttoptr i64 %43 to ptr
  store ptr %44, ptr %4, align 8
  br label %51

45:                                               ; preds = %37
  %46 = load i64, ptr %7, align 8
  %47 = load i64, ptr %10, align 8
  call void @llvm.memcpy.p0.p0.i64(ptr align 1 %12, ptr align 1 %5, i64 1, i1 false)
  %48 = getelementptr inbounds nuw %"struct.llvm::Align", ptr %12, i32 0, i32 0
  %49 = load i8, ptr %48, align 1
  %50 = call noundef nonnull ptr @_ZN4llvm20BumpPtrAllocatorImplINS_15MallocAllocatorELm4096ELm4096ELm128EE12AllocateSlowEmmNS_5AlignE(ptr noundef nonnull align 8 dereferenceable(96) %14, i64 noundef %46, i64 noundef %47, i8 %49)
  store ptr %50, ptr %4, align 8
  br label %51

51:                                               ; preds = %45, %39
  %52 = load ptr, ptr %4, align 8
  ret ptr %52
}

; Function Attrs: mustprogress nounwind uwtable
define linkonce_odr hidden void @_ZN4llvm5AlignC2Em(ptr noundef nonnull align 1 dereferenceable(1) %0, i64 noundef %1) unnamed_addr #1 comdat align 2 {
  %3 = alloca ptr, align 8
  %4 = alloca i64, align 8
  store ptr %0, ptr %3, align 8
  store i64 %1, ptr %4, align 8
  %5 = load ptr, ptr %3, align 8
  %6 = getelementptr inbounds nuw %"struct.llvm::Align", ptr %5, i32 0, i32 0
  store i8 0, ptr %6, align 1
  %7 = load i64, ptr %4, align 8
  %8 = call noundef i32 @_ZN4llvm7Log2_64Em(i64 noundef %7)
  %9 = trunc i32 %8 to i8
  %10 = getelementptr inbounds nuw %"struct.llvm::Align", ptr %5, i32 0, i32 0
  store i8 %9, ptr %10, align 1
  ret void
}

; Function Attrs: mustprogress nounwind uwtable
define linkonce_odr hidden noundef nonnull ptr @_ZN4llvm20BumpPtrAllocatorImplINS_15MallocAllocatorELm4096ELm4096ELm128EE8AllocateEmm(ptr noundef nonnull align 8 dereferenceable(96) %0, i64 noundef %1, i64 noundef %2) #1 comdat align 2 {
  %4 = alloca ptr, align 8
  %5 = alloca i64, align 8
  %6 = alloca i64, align 8
  %7 = alloca %"struct.llvm::Align", align 1
  store ptr %0, ptr %4, align 8
  store i64 %1, ptr %5, align 8
  store i64 %2, ptr %6, align 8
  %8 = load ptr, ptr %4, align 8
  %9 = load i64, ptr %5, align 8
  %10 = load i64, ptr %6, align 8
  call void @_ZN4llvm5AlignC2Em(ptr noundef nonnull align 1 dereferenceable(1) %7, i64 noundef %10)
  %11 = getelementptr inbounds nuw %"struct.llvm::Align", ptr %7, i32 0, i32 0
  %12 = load i8, ptr %11, align 1
  %13 = call noundef nonnull ptr @_ZN4llvm20BumpPtrAllocatorImplINS_15MallocAllocatorELm4096ELm4096ELm128EE8AllocateEmNS_5AlignE(ptr noundef nonnull align 8 dereferenceable(96) %8, i64 noundef %9, i8 %12)
  ret ptr %13
}

; Function Attrs: mustprogress nounwind uwtable
define linkonce_odr hidden noundef ptr @_ZN4llvm9MCContext8allocateEjj(ptr noundef nonnull align 8 dereferenceable(2432) %0, i32 noundef %1, i32 noundef %2) #1 comdat align 2 {
  %4 = alloca ptr, align 8
  %5 = alloca i32, align 4
  %6 = alloca i32, align 4
  store ptr %0, ptr %4, align 8
  store i32 %1, ptr %5, align 4
  store i32 %2, ptr %6, align 4
  %7 = load ptr, ptr %4, align 8
  %8 = getelementptr inbounds nuw %"class.llvm::MCContext", ptr %7, i32 0, i32 12
  %9 = load i32, ptr %5, align 4
  %10 = zext i32 %9 to i64
  %11 = load i32, ptr %6, align 4
  %12 = zext i32 %11 to i64
  %13 = call noundef nonnull ptr @_ZN4llvm20BumpPtrAllocatorImplINS_15MallocAllocatorELm4096ELm4096ELm128EE8AllocateEmm(ptr noundef nonnull align 8 dereferenceable(96) %8, i64 noundef %10, i64 noundef %12)
  ret ptr %13
}

; Function Attrs: mustprogress nounwind uwtable
define dso_local noundef ptr @_ZN4llvm8MCSymbolnwEmPKNS_14StringMapEntryINS_18MCSymbolTableValueEEERNS_9MCContextE(i64 noundef %0, ptr noundef %1, ptr noundef nonnull align 8 dereferenceable(2432) %2) #1 align 2 {
  %4 = alloca i64, align 8
  %5 = alloca ptr, align 8
  %6 = alloca ptr, align 8
  %7 = alloca i64, align 8
  %8 = alloca ptr, align 8
  %9 = alloca ptr, align 8
  %10 = alloca ptr, align 8
  store i64 %0, ptr %4, align 8
  store ptr %1, ptr %5, align 8
  store ptr %2, ptr %6, align 8
  %11 = load i64, ptr %4, align 8
  %12 = load ptr, ptr %5, align 8
  %13 = icmp ne ptr %12, null
  %14 = select i1 %13, i64 8, i64 0
  %15 = add i64 %11, %14
  store i64 %15, ptr %7, align 8
  %16 = load ptr, ptr %6, align 8
  %17 = load i64, ptr %7, align 8
  %18 = trunc i64 %17 to i32
  %19 = call noundef ptr @_ZN4llvm9MCContext8allocateEjj(ptr noundef nonnull align 8 dereferenceable(2432) %16, i32 noundef %18, i32 noundef 8)
  store ptr %19, ptr %8, align 8
  %20 = load ptr, ptr %8, align 8
  store ptr %20, ptr %9, align 8
  %21 = load ptr, ptr %9, align 8
  %22 = load ptr, ptr %5, align 8
  %23 = icmp ne ptr %22, null
  %24 = select i1 %23, i32 1, i32 0
  %25 = sext i32 %24 to i64
  %26 = getelementptr inbounds %"union.llvm::MCSymbol::NameEntryStorageTy", ptr %21, i64 %25
  store ptr %26, ptr %10, align 8
  %27 = load ptr, ptr %10, align 8
  ret ptr %27
}