; Function Attrs: mustprogress nounwind uwtable
define dso_local noundef ptr @_ZN4llvm8MCSymbolnwEmPKNS_14StringMapEntryINS_18MCSymbolTableValueEEERNS_9MCContextE(i64 noundef %0, ptr noundef readnone %1, ptr noundef nonnull align 8 dereferenceable(2432) %2) local_unnamed_addr #0 align 2 {
  %.not = icmp ne ptr %1, null
  %4 = select i1 %.not, i64 8, i64 0
  %5 = add i64 %4, %0
  %6 = getelementptr inbounds nuw i8, ptr %2, i64 192
  %7 = and i64 %5, 4294967295
  %8 = getelementptr inbounds i8, ptr %2, i64 272
  %9 = load i64, ptr %8, align 8
  %10 = add i64 %9, %7
  store i64 %10, ptr %8, align 8
  %11 = load ptr, ptr %6, align 8
  %12 = ptrtoint ptr %11 to i64
  %13 = add i64 %12, 7
  %14 = and i64 %13, -8
  %15 = add i64 %14, %7
  %16 = getelementptr inbounds i8, ptr %2, i64 200
  %17 = load ptr, ptr %16, align 8
  %18 = ptrtoint ptr %17 to i64
  %.not.i.i.i = icmp ugt i64 %15, %18
  %.not14.i.i.i = icmp eq ptr %11, null
  %or.cond.i.i.i = or i1 %.not14.i.i.i, %.not.i.i.i
  br i1 %or.cond.i.i.i, label %.critedge.i.i.i, label %19

19:                                               ; preds = %3
  %20 = inttoptr i64 %15 to ptr
  store ptr %20, ptr %6, align 8
  %21 = inttoptr i64 %14 to ptr
  br label %_ZN4llvm9MCContext8allocateEjj.exit

.critedge.i.i.i:                                  ; preds = %3
  %22 = tail call noundef nonnull ptr @_ZN4llvm20BumpPtrAllocatorImplINS_15MallocAllocatorELm4096ELm4096ELm128EE12AllocateSlowEmmNS_5AlignE(ptr noundef nonnull align 8 dereferenceable(96) %6, i64 noundef %7, i64 noundef %7, i8 3)
  br label %_ZN4llvm9MCContext8allocateEjj.exit

_ZN4llvm9MCContext8allocateEjj.exit:              ; preds = %19, %.critedge.i.i.i
  %.0.i.i.i = phi ptr [ %21, %19 ], [ %22, %.critedge.i.i.i ]
  %23 = zext i1 %.not to i64
  %24 = getelementptr inbounds %"union.llvm::MCSymbol::NameEntryStorageTy", ptr %.0.i.i.i, i64 %23
  ret ptr %24
}